; Function Attrs: nounwind uwtable
define internal ptr @complete_from_const(ptr noundef readonly captures(none) %0, i32 noundef %1) #0 {
  %3 = icmp eq i32 %1, 0
  br i1 %3, label %4, label %pg_strdup_keyword_case.exit

4:                                                ; preds = %2
  %.b2 = load i1, ptr @completion_case_sensitive, align 1
  %5 = load ptr, ptr @completion_charp, align 8
  br i1 %.b2, label %6, label %8

6:                                                ; preds = %4
  %7 = tail call ptr @pg_strdup(ptr noundef %5) #11
  br label %pg_strdup_keyword_case.exit

8:                                                ; preds = %4
  %.val = load i8, ptr %0, align 1
  %9 = tail call ptr @pg_strdup(ptr noundef %5) #11
  %10 = load i32, ptr getelementptr inbounds nuw (i8, ptr @pset, i64 432), align 8
  %11 = icmp eq i32 %10, 3
  br i1 %11, label %23, label %12

12:                                               ; preds = %8
  %or.cond.i = icmp ult i32 %10, 2
  br i1 %or.cond.i, label %13, label %.thread.i

13:                                               ; preds = %12
  %14 = tail call ptr @__ctype_b_loc() #12
  %15 = load ptr, ptr %14, align 8
  %16 = zext i8 %.val to i64
  %17 = getelementptr inbounds nuw i16, ptr %15, i64 %16
  %18 = load i16, ptr %17, align 2
  %19 = and i16 %18, 512
  %.not.i = icmp eq i16 %19, 0
  br i1 %.not.i, label %20, label %23

20:                                               ; preds = %13
  %21 = icmp eq i32 %10, 1
  %22 = and i16 %18, 1024
  %.not18.i = icmp eq i16 %22, 0
  %or.cond9.i = and i1 %21, %.not18.i
  br i1 %or.cond9.i, label %23, label %.thread.i

23:                                               ; preds = %20, %13, %8
  %24 = load i8, ptr %9, align 1
  %.not204.i = icmp eq i8 %24, 0
  br i1 %.not204.i, label %pg_strdup_keyword_case.exit, label %.lr.ph6.i

.lr.ph6.i:                                        ; preds = %23, %.lr.ph6.i
  %25 = phi i8 [ %28, %.lr.ph6.i ], [ %24, %23 ]
  %.05.i = phi ptr [ %27, %.lr.ph6.i ], [ %9, %23 ]
  %26 = tail call zeroext i8 @pg_tolower(i8 noundef zeroext %25) #11
  store i8 %26, ptr %.05.i, align 1
  %27 = getelementptr inbounds nuw i8, ptr %.05.i, i64 1
  %28 = load i8, ptr %27, align 1
  %.not20.i = icmp eq i8 %28, 0
  br i1 %.not20.i, label %pg_strdup_keyword_case.exit, label %.lr.ph6.i, !llvm.loop !15

.thread.i:                                        ; preds = %20, %12
  %29 = load i8, ptr %9, align 1
  %.not192.i = icmp eq i8 %29, 0
  br i1 %.not192.i, label %pg_strdup_keyword_case.exit, label %.lr.ph.i

.lr.ph.i:                                         ; preds = %.thread.i, %.lr.ph.i
  %30 = phi i8 [ %33, %.lr.ph.i ], [ %29, %.thread.i ]
  %.13.i = phi ptr [ %32, %.lr.ph.i ], [ %9, %.thread.i ]
  %31 = tail call zeroext i8 @pg_toupper(i8 noundef zeroext %30) #11
  store i8 %31, ptr %.13.i, align 1
  %32 = getelementptr inbounds nuw i8, ptr %.13.i, i64 1
  %33 = load i8, ptr %32, align 1
  %.not19.i = icmp eq i8 %33, 0
  br i1 %.not19.i, label %pg_strdup_keyword_case.exit, label %.lr.ph.i, !llvm.loop !16

pg_strdup_keyword_case.exit:                      ; preds = %.lr.ph.i, %.lr.ph6.i, %.thread.i, %23, %2, %6
  %.0 = phi ptr [ %7, %6 ], [ null, %2 ], [ %9, %23 ], [ %9, %.thread.i ], [ %9, %.lr.ph6.i ], [ %9, %.lr.ph.i ]
  ret ptr %.0
}